target datalayout = "e-m:e-p270:32:32-p271:32:32-p272:64:64-i64:64-i128:128-f80:128-n8:16:32:64-S128"
target triple = "x86_64-pc-linux-gnu"

%"class.std::unique_ptr.2" = type { %"struct.std::__uniq_ptr_data.3" }
%"struct.std::__uniq_ptr_data.3" = type { %"class.std::__uniq_ptr_impl.4" }
%"class.std::__uniq_ptr_impl.4" = type { %"class.std::tuple.5" }
%"class.std::tuple.5" = type { %"struct.std::_Tuple_impl.6" }
%"struct.std::_Tuple_impl.6" = type { %"struct.std::_Head_base.9" }
%"struct.std::_Head_base.9" = type { ptr }
%class.anon.52 = type { i8 }
%"class.std::unique_ptr.54" = type { %"struct.std::__uniq_ptr_data.55" }
%"struct.std::__uniq_ptr_data.55" = type { %"class.std::__uniq_ptr_impl.56" }
%"class.std::__uniq_ptr_impl.56" = type { %"class.std::tuple.57" }
%"class.std::tuple.57" = type { %"struct.std::_Tuple_impl.58" }
%"struct.std::_Tuple_impl.58" = type { %"struct.std::_Head_base.61" }
%"struct.std::_Head_base.61" = type { ptr }

@.str.103 = private unnamed_addr constant [15 x i8] c"src != nullptr\00", align 1
@.str.104 = private unnamed_addr constant [43 x i8] c"Semantic value pointers should be non-NULL\00", align 1
@.str.105 = private unnamed_addr constant [133 x i8] c"generated/home/dtcxzyw/WorkSpace/Projects/compilers/llvm-opt-benchmark/bench/gromacs/gromacs/src/gromacs/selection/parser_internal.h\00", align 1

; Function Attrs: mustprogress nounwind uwtable
define linkonce_odr noundef nonnull align 8 dereferenceable(8) ptr @_ZNSt10_Head_baseILm0EPNSt7__cxx114listIN3gmx24SelectionParserParameterESaIS3_EEELb0EE7_M_headERS7_(ptr noundef nonnull align 8 dereferenceable(8) %0) #0 comdat align 2 {
  %2 = alloca ptr, align 8
  store ptr %0, ptr %2, align 8
  %3 = load ptr, ptr %2, align 8
  %4 = getelementptr inbounds %"struct.std::_Head_base.9", ptr %3, i32 0, i32 0
  ret ptr %4
}

; Function Attrs: mustprogress nounwind uwtable
define linkonce_odr noundef nonnull align 8 dereferenceable(8) ptr @_ZNSt10_Head_baseILm0EPSt10unique_ptrINSt7__cxx114listIN3gmx24SelectionParserParameterESaIS4_EEESt14default_deleteIS6_EELb0EE7_M_headERSB_(ptr noundef nonnull align 8 dereferenceable(8) %0) #0 comdat align 2 {
  %2 = alloca ptr, align 8
  store ptr %0, ptr %2, align 8
  %3 = load ptr, ptr %2, align 8
  %4 = getelementptr inbounds %"struct.std::_Head_base.61", ptr %3, i32 0, i32 0
  ret ptr %4
}

; Function Attrs: mustprogress nounwind uwtable
define linkonce_odr noundef nonnull align 8 dereferenceable(8) ptr @_ZNSt11_Tuple_implILm0EJPNSt7__cxx114listIN3gmx24SelectionParserParameterESaIS3_EEESt14default_deleteIS5_EEE7_M_headERS9_(ptr noundef nonnull align 8 dereferenceable(8) %0) #0 comdat align 2 {
  %2 = alloca ptr, align 8
  store ptr %0, ptr %2, align 8
  %3 = load ptr, ptr %2, align 8
  %4 = call noundef nonnull align 8 dereferenceable(8) ptr @_ZNSt10_Head_baseILm0EPNSt7__cxx114listIN3gmx24SelectionParserParameterESaIS3_EEELb0EE7_M_headERS7_(ptr noundef nonnull align 8 dereferenceable(8) %3) #14
  ret ptr %4
}

; Function Attrs: mustprogress nounwind uwtable
define linkonce_odr noundef nonnull align 8 dereferenceable(8) ptr @_ZNSt11_Tuple_implILm0EJPSt10unique_ptrINSt7__cxx114listIN3gmx24SelectionParserParameterESaIS4_EEESt14default_deleteIS6_EES7_IS9_EEE7_M_headERSC_(ptr noundef nonnull align 8 dereferenceable(8) %0) #0 comdat align 2 {
  %2 = alloca ptr, align 8
  store ptr %0, ptr %2, align 8
  %3 = load ptr, ptr %2, align 8
  %4 = call noundef nonnull align 8 dereferenceable(8) ptr @_ZNSt10_Head_baseILm0EPSt10unique_ptrINSt7__cxx114listIN3gmx24SelectionParserParameterESaIS4_EEESt14default_deleteIS6_EELb0EE7_M_headERSB_(ptr noundef nonnull align 8 dereferenceable(8) %3) #14
  ret ptr %4
}

; Function Attrs: mustprogress nounwind uwtable
define linkonce_odr void @_ZNSt10_Head_baseILm1ESt14default_deleteISt10unique_ptrINSt7__cxx114listIN3gmx24SelectionParserParameterESaIS5_EEES0_IS7_EEELb1EEC2Ev(ptr noundef nonnull align 1 dereferenceable(1) %0) unnamed_addr #0 comdat align 2 {
  %2 = alloca ptr, align 8
  store ptr %0, ptr %2, align 8
  ret void
}

; Function Attrs: mustprogress nounwind uwtable
define linkonce_odr noundef nonnull align 8 dereferenceable(8) ptr @_ZSt12__get_helperILm0EPNSt7__cxx114listIN3gmx24SelectionParserParameterESaIS3_EEEJSt14default_deleteIS5_EEERT0_RSt11_Tuple_implIXT_EJS9_DpT1_EE(ptr noundef nonnull align 8 dereferenceable(8) %0) #0 comdat {
  %2 = alloca ptr, align 8
  store ptr %0, ptr %2, align 8
  %3 = load ptr, ptr %2, align 8
  %4 = call noundef nonnull align 8 dereferenceable(8) ptr @_ZNSt11_Tuple_implILm0EJPNSt7__cxx114listIN3gmx24SelectionParserParameterESaIS3_EEESt14default_deleteIS5_EEE7_M_headERS9_(ptr noundef nonnull align 8 dereferenceable(8) %3) #14
  ret ptr %4
}

; Function Attrs: mustprogress nounwind uwtable
define linkonce_odr void @_ZNSt11_Tuple_implILm1EJSt14default_deleteINSt7__cxx114listIN3gmx24SelectionParserParameterESaIS4_EEEEEEC2EOS8_(ptr noundef nonnull align 1 dereferenceable(1) %0, ptr noundef nonnull align 1 dereferenceable(1) %1) unnamed_addr #0 comdat align 2 {
  %3 = alloca ptr, align 8
  %4 = alloca ptr, align 8
  store ptr %0, ptr %3, align 8
  store ptr %1, ptr %4, align 8
  ret void
}

; Function Attrs: mustprogress nounwind uwtable
define linkonce_odr noundef nonnull align 8 dereferenceable(8) ptr @_ZSt12__get_helperILm0EPSt10unique_ptrINSt7__cxx114listIN3gmx24SelectionParserParameterESaIS4_EEESt14default_deleteIS6_EEJS7_IS9_EEERT0_RSt11_Tuple_implIXT_EJSC_DpT1_EE(ptr noundef nonnull align 8 dereferenceable(8) %0) #0 comdat {
  %2 = alloca ptr, align 8
  store ptr %0, ptr %2, align 8
  %3 = load ptr, ptr %2, align 8
  %4 = call noundef nonnull align 8 dereferenceable(8) ptr @_ZNSt11_Tuple_implILm0EJPSt10unique_ptrINSt7__cxx114listIN3gmx24SelectionParserParameterESaIS4_EEESt14default_deleteIS6_EES7_IS9_EEE7_M_headERSC_(ptr noundef nonnull align 8 dereferenceable(8) %3) #14
  ret ptr %4
}

; Function Attrs: mustprogress nounwind uwtable
define linkonce_odr void @_ZNSt10_Head_baseILm0EPSt10unique_ptrINSt7__cxx114listIN3gmx24SelectionParserParameterESaIS4_EEESt14default_deleteIS6_EELb0EEC2Ev(ptr noundef nonnull align 8 dereferenceable(8) %0) unnamed_addr #0 comdat align 2 {
  %2 = alloca ptr, align 8
  store ptr %0, ptr %2, align 8
  %3 = load ptr, ptr %2, align 8
  %4 = getelementptr inbounds %"struct.std::_Head_base.61", ptr %3, i32 0, i32 0
  store ptr null, ptr %4, align 8
  ret void
}

; Function Attrs: mustprogress uwtable
define linkonce_odr void @_ZNSt11_Tuple_implILm1EJSt14default_deleteISt10unique_ptrINSt7__cxx114listIN3gmx24SelectionParserParameterESaIS5_EEES0_IS7_EEEEEC2Ev(ptr noundef nonnull align 1 dereferenceable(1) %0) unnamed_addr #3 comdat align 2 {
  %2 = alloca ptr, align 8
  store ptr %0, ptr %2, align 8
  %3 = load ptr, ptr %2, align 8
  call void @_ZNSt10_Head_baseILm1ESt14default_deleteISt10unique_ptrINSt7__cxx114listIN3gmx24SelectionParserParameterESaIS5_EEES0_IS7_EEELb1EEC2Ev(ptr noundef nonnull align 1 dereferenceable(1) %3)
  ret void
}

; Function Attrs: mustprogress nounwind uwtable
define linkonce_odr noundef nonnull align 8 dereferenceable(8) ptr @_ZSt3getILm0EJPNSt7__cxx114listIN3gmx24SelectionParserParameterESaIS3_EEESt14default_deleteIS5_EEERNSt13tuple_elementIXT_ESt5tupleIJDpT0_EEE4typeERSD_(ptr noundef nonnull align 8 dereferenceable(8) %0) #0 comdat {
  %2 = alloca ptr, align 8
  store ptr %0, ptr %2, align 8
  %3 = load ptr, ptr %2, align 8
  %4 = call noundef nonnull align 8 dereferenceable(8) ptr @_ZSt12__get_helperILm0EPNSt7__cxx114listIN3gmx24SelectionParserParameterESaIS3_EEEJSt14default_deleteIS5_EEERT0_RSt11_Tuple_implIXT_EJS9_DpT1_EE(ptr noundef nonnull align 8 dereferenceable(8) %3) #14
  ret ptr %4
}

; Function Attrs: mustprogress nounwind uwtable
define linkonce_odr void @_ZNSt11_Tuple_implILm0EJPNSt7__cxx114listIN3gmx24SelectionParserParameterESaIS3_EEESt14default_deleteIS5_EEEC2EOS9_(ptr noundef nonnull align 8 dereferenceable(8) %0, ptr noundef nonnull align 8 dereferenceable(8) %1) unnamed_addr #0 comdat align 2 {
  %3 = alloca ptr, align 8
  %4 = alloca ptr, align 8
  store ptr %0, ptr %3, align 8
  store ptr %1, ptr %4, align 8
  %5 = load ptr, ptr %3, align 8
  %6 = load ptr, ptr %4, align 8
  call void @_ZNSt11_Tuple_implILm1EJSt14default_deleteINSt7__cxx114listIN3gmx24SelectionParserParameterESaIS4_EEEEEEC2EOS8_(ptr noundef nonnull align 1 dereferenceable(1) %5, ptr noundef nonnull align 1 dereferenceable(1) %6) #14
  %7 = load ptr, ptr %4, align 8
  call void @llvm.memcpy.p0.p0.i64(ptr align 8 %5, ptr align 8 %7, i64 8, i1 false)
  ret void
}

; Function Attrs: mustprogress nounwind uwtable
define linkonce_odr noundef nonnull align 8 dereferenceable(8) ptr @_ZSt3getILm0EJPSt10unique_ptrINSt7__cxx114listIN3gmx24SelectionParserParameterESaIS4_EEESt14default_deleteIS6_EES7_IS9_EEERNSt13tuple_elementIXT_ESt5tupleIJDpT0_EEE4typeERSG_(ptr noundef nonnull align 8 dereferenceable(8) %0) #0 comdat {
  %2 = alloca ptr, align 8
  store ptr %0, ptr %2, align 8
  %3 = load ptr, ptr %2, align 8
  %4 = call noundef nonnull align 8 dereferenceable(8) ptr @_ZSt12__get_helperILm0EPSt10unique_ptrINSt7__cxx114listIN3gmx24SelectionParserParameterESaIS4_EEESt14default_deleteIS6_EEJS7_IS9_EEERT0_RSt11_Tuple_implIXT_EJSC_DpT1_EE(ptr noundef nonnull align 8 dereferenceable(8) %3) #14
  ret ptr %4
}

; Function Attrs: mustprogress uwtable
define linkonce_odr void @_ZNSt11_Tuple_implILm0EJPSt10unique_ptrINSt7__cxx114listIN3gmx24SelectionParserParameterESaIS4_EEESt14default_deleteIS6_EES7_IS9_EEEC2Ev(ptr noundef nonnull align 8 dereferenceable(8) %0) unnamed_addr #3 comdat align 2 {
  %2 = alloca ptr, align 8
  store ptr %0, ptr %2, align 8
  %3 = load ptr, ptr %2, align 8
  call void @_ZNSt11_Tuple_implILm1EJSt14default_deleteISt10unique_ptrINSt7__cxx114listIN3gmx24SelectionParserParameterESaIS5_EEES0_IS7_EEEEEC2Ev(ptr noundef nonnull align 1 dereferenceable(1) %3)
  call void @_ZNSt10_Head_baseILm0EPSt10unique_ptrINSt7__cxx114listIN3gmx24SelectionParserParameterESaIS4_EEESt14default_deleteIS6_EELb0EEC2Ev(ptr noundef nonnull align 8 dereferenceable(8) %3)
  ret void
}

; Function Attrs: mustprogress nounwind uwtable
define linkonce_odr noundef nonnull align 8 dereferenceable(8) ptr @_ZNSt15__uniq_ptr_implINSt7__cxx114listIN3gmx24SelectionParserParameterESaIS3_EEESt14default_deleteIS5_EE6_M_ptrEv(ptr noundef nonnull align 8 dereferenceable(8) %0) #0 comdat align 2 {
  %2 = alloca ptr, align 8
  store ptr %0, ptr %2, align 8
  %3 = load ptr, ptr %2, align 8
  %4 = getelementptr inbounds %"class.std::__uniq_ptr_impl.4", ptr %3, i32 0, i32 0
  %5 = call noundef nonnull align 8 dereferenceable(8) ptr @_ZSt3getILm0EJPNSt7__cxx114listIN3gmx24SelectionParserParameterESaIS3_EEESt14default_deleteIS5_EEERNSt13tuple_elementIXT_ESt5tupleIJDpT0_EEE4typeERSD_(ptr noundef nonnull align 8 dereferenceable(8) %4) #14
  ret ptr %5
}

; Function Attrs: mustprogress nounwind uwtable
define linkonce_odr void @_ZNSt5tupleIJPNSt7__cxx114listIN3gmx24SelectionParserParameterESaIS3_EEESt14default_deleteIS5_EEEC2EOS9_(ptr noundef nonnull align 8 dereferenceable(8) %0, ptr noundef nonnull align 8 dereferenceable(8) %1) unnamed_addr #0 comdat align 2 {
  %3 = alloca ptr, align 8
  %4 = alloca ptr, align 8
  store ptr %0, ptr %3, align 8
  store ptr %1, ptr %4, align 8
  %5 = load ptr, ptr %3, align 8
  %6 = load ptr, ptr %4, align 8
  call void @_ZNSt11_Tuple_implILm0EJPNSt7__cxx114listIN3gmx24SelectionParserParameterESaIS3_EEESt14default_deleteIS5_EEEC2EOS9_(ptr noundef nonnull align 8 dereferenceable(8) %5, ptr noundef nonnull align 8 dereferenceable(8) %6) #14
  ret void
}

; Function Attrs: mustprogress nounwind uwtable
define linkonce_odr noundef nonnull align 8 dereferenceable(8) ptr @_ZNSt15__uniq_ptr_implISt10unique_ptrINSt7__cxx114listIN3gmx24SelectionParserParameterESaIS4_EEESt14default_deleteIS6_EES7_IS9_EE6_M_ptrEv(ptr noundef nonnull align 8 dereferenceable(8) %0) #0 comdat align 2 {
  %2 = alloca ptr, align 8
  store ptr %0, ptr %2, align 8
  %3 = load ptr, ptr %2, align 8
  %4 = getelementptr inbounds %"class.std::__uniq_ptr_impl.56", ptr %3, i32 0, i32 0
  %5 = call noundef nonnull align 8 dereferenceable(8) ptr @_ZSt3getILm0EJPSt10unique_ptrINSt7__cxx114listIN3gmx24SelectionParserParameterESaIS4_EEESt14default_deleteIS6_EES7_IS9_EEERNSt13tuple_elementIXT_ESt5tupleIJDpT0_EEE4typeERSG_(ptr noundef nonnull align 8 dereferenceable(8) %4) #14
  ret ptr %5
}

; Function Attrs: mustprogress nounwind uwtable
define linkonce_odr void @_ZNSt5tupleIJPSt10unique_ptrINSt7__cxx114listIN3gmx24SelectionParserParameterESaIS4_EEESt14default_deleteIS6_EES7_IS9_EEEC2ILb1ETnNSt9enable_ifIXclsr17_TupleConstraintsIXT_ESA_SB_EE37__is_implicitly_default_constructibleEEbE4typeELb1EEEv(ptr noundef nonnull align 8 dereferenceable(8) %0) unnamed_addr #0 comdat align 2 personality ptr @__gxx_personality_v0 {
  %2 = alloca ptr, align 8
  store ptr %0, ptr %2, align 8
  %3 = load ptr, ptr %2, align 8
  invoke void @_ZNSt11_Tuple_implILm0EJPSt10unique_ptrINSt7__cxx114listIN3gmx24SelectionParserParameterESaIS4_EEESt14default_deleteIS6_EES7_IS9_EEEC2Ev(ptr noundef nonnull align 8 dereferenceable(8) %3)
          to label %4 unwind label %5

4:                                                ; preds = %1
  ret void

5:                                                ; preds = %1
  %6 = landingpad { ptr, i32 }
          catch ptr null
  %7 = extractvalue { ptr, i32 } %6, 0
  call void @__clang_call_terminate(ptr %7) #17
  unreachable
}

; Function Attrs: mustprogress nounwind uwtable
define linkonce_odr void @_ZNSt15__uniq_ptr_implINSt7__cxx114listIN3gmx24SelectionParserParameterESaIS3_EEESt14default_deleteIS5_EEC2EOS8_(ptr noundef nonnull align 8 dereferenceable(8) %0, ptr noundef nonnull align 8 dereferenceable(8) %1) unnamed_addr #0 comdat align 2 {
  %3 = alloca ptr, align 8
  %4 = alloca ptr, align 8
  store ptr %0, ptr %3, align 8
  store ptr %1, ptr %4, align 8
  %5 = load ptr, ptr %3, align 8
  %6 = getelementptr inbounds %"class.std::__uniq_ptr_impl.4", ptr %5, i32 0, i32 0
  %7 = load ptr, ptr %4, align 8
  %8 = getelementptr inbounds %"class.std::__uniq_ptr_impl.4", ptr %7, i32 0, i32 0
  call void @_ZNSt5tupleIJPNSt7__cxx114listIN3gmx24SelectionParserParameterESaIS3_EEESt14default_deleteIS5_EEEC2EOS9_(ptr noundef nonnull align 8 dereferenceable(8) %6, ptr noundef nonnull align 8 dereferenceable(8) %8) #14
  %9 = load ptr, ptr %4, align 8
  %10 = call noundef nonnull align 8 dereferenceable(8) ptr @_ZNSt15__uniq_ptr_implINSt7__cxx114listIN3gmx24SelectionParserParameterESaIS3_EEESt14default_deleteIS5_EE6_M_ptrEv(ptr noundef nonnull align 8 dereferenceable(8) %9) #14
  store ptr null, ptr %10, align 8
  ret void
}

; Function Attrs: mustprogress nounwind uwtable
define linkonce_odr void @_ZNSt15__uniq_ptr_implISt10unique_ptrINSt7__cxx114listIN3gmx24SelectionParserParameterESaIS4_EEESt14default_deleteIS6_EES7_IS9_EEC2EPS9_(ptr noundef nonnull align 8 dereferenceable(8) %0, ptr noundef %1) unnamed_addr #0 comdat align 2 {
  %3 = alloca ptr, align 8
  %4 = alloca ptr, align 8
  store ptr %0, ptr %3, align 8
  store ptr %1, ptr %4, align 8
  %5 = load ptr, ptr %3, align 8
  %6 = getelementptr inbounds %"class.std::__uniq_ptr_impl.56", ptr %5, i32 0, i32 0
  call void @_ZNSt5tupleIJPSt10unique_ptrINSt7__cxx114listIN3gmx24SelectionParserParameterESaIS4_EEESt14default_deleteIS6_EES7_IS9_EEEC2ILb1ETnNSt9enable_ifIXclsr17_TupleConstraintsIXT_ESA_SB_EE37__is_implicitly_default_constructibleEEbE4typeELb1EEEv(ptr noundef nonnull align 8 dereferenceable(8) %6) #14
  %7 = load ptr, ptr %4, align 8
  %8 = call noundef nonnull align 8 dereferenceable(8) ptr @_ZNSt15__uniq_ptr_implISt10unique_ptrINSt7__cxx114listIN3gmx24SelectionParserParameterESaIS4_EEESt14default_deleteIS6_EES7_IS9_EE6_M_ptrEv(ptr noundef nonnull align 8 dereferenceable(8) %5) #14
  store ptr %7, ptr %8, align 8
  ret void
}

; Function Attrs: mustprogress nounwind uwtable
define linkonce_odr void @_ZNSt15__uniq_ptr_dataINSt7__cxx114listIN3gmx24SelectionParserParameterESaIS3_EEESt14default_deleteIS5_ELb1ELb1EEC2EOS8_(ptr noundef nonnull align 8 dereferenceable(8) %0, ptr noundef nonnull align 8 dereferenceable(8) %1) unnamed_addr #0 comdat align 2 {
  %3 = alloca ptr, align 8
  %4 = alloca ptr, align 8
  store ptr %0, ptr %3, align 8
  store ptr %1, ptr %4, align 8
  %5 = load ptr, ptr %3, align 8
  %6 = load ptr, ptr %4, align 8
  call void @_ZNSt15__uniq_ptr_implINSt7__cxx114listIN3gmx24SelectionParserParameterESaIS3_EEESt14default_deleteIS5_EEC2EOS8_(ptr noundef nonnull align 8 dereferenceable(8) %5, ptr noundef nonnull align 8 dereferenceable(8) %6) #14
  ret void
}

; Function Attrs: noreturn nounwind uwtable
define linkonce_odr hidden void @__clang_call_terminate(ptr noundef %0) #7 comdat {
  %2 = call ptr @__cxa_begin_catch(ptr %0) #14
  call void @_ZSt9terminatev() #17
  unreachable
}

; Function Attrs: mustprogress uwtable
define linkonce_odr void @_ZNSt15__uniq_ptr_dataISt10unique_ptrINSt7__cxx114listIN3gmx24SelectionParserParameterESaIS4_EEESt14default_deleteIS6_EES7_IS9_ELb1ELb1EECI2St15__uniq_ptr_implIS9_SA_EEPS9_(ptr noundef nonnull align 8 dereferenceable(8) %0, ptr noundef %1) unnamed_addr #3 comdat align 2 {
  %3 = alloca ptr, align 8
  %4 = alloca ptr, align 8
  store ptr %0, ptr %3, align 8
  store ptr %1, ptr %4, align 8
  %5 = load ptr, ptr %3, align 8
  %6 = load ptr, ptr %4, align 8
  call void @_ZNSt15__uniq_ptr_implISt10unique_ptrINSt7__cxx114listIN3gmx24SelectionParserParameterESaIS4_EEESt14default_deleteIS6_EES7_IS9_EEC2EPS9_(ptr noundef nonnull align 8 dereferenceable(8) %5, ptr noundef %6)
  ret void
}

; Function Attrs: mustprogress nounwind uwtable
define linkonce_odr void @_ZNSt10unique_ptrINSt7__cxx114listIN3gmx24SelectionParserParameterESaIS3_EEESt14default_deleteIS5_EEC2EOS8_(ptr noundef nonnull align 8 dereferenceable(8) %0, ptr noundef nonnull align 8 dereferenceable(8) %1) unnamed_addr #0 comdat align 2 {
  %3 = alloca ptr, align 8
  %4 = alloca ptr, align 8
  store ptr %0, ptr %3, align 8
  store ptr %1, ptr %4, align 8
  %5 = load ptr, ptr %3, align 8
  %6 = getelementptr inbounds %"class.std::unique_ptr.2", ptr %5, i32 0, i32 0
  %7 = load ptr, ptr %4, align 8
  %8 = getelementptr inbounds %"class.std::unique_ptr.2", ptr %7, i32 0, i32 0
  call void @_ZNSt15__uniq_ptr_dataINSt7__cxx114listIN3gmx24SelectionParserParameterESaIS3_EEESt14default_deleteIS5_ELb1ELb1EEC2EOS8_(ptr noundef nonnull align 8 dereferenceable(8) %6, ptr noundef nonnull align 8 dereferenceable(8) %8) #14
  ret void
}

; Function Attrs: mustprogress nounwind uwtable
define linkonce_odr void @_ZNSt10unique_ptrIS_INSt7__cxx114listIN3gmx24SelectionParserParameterESaIS3_EEESt14default_deleteIS5_EES6_IS8_EEC2IS9_vEEPS8_(ptr noundef nonnull align 8 dereferenceable(8) %0, ptr noundef %1) unnamed_addr #0 comdat align 2 personality ptr @__gxx_personality_v0 {
  %3 = alloca ptr, align 8
  %4 = alloca ptr, align 8
  store ptr %0, ptr %3, align 8
  store ptr %1, ptr %4, align 8
  %5 = load ptr, ptr %3, align 8
  %6 = getelementptr inbounds %"class.std::unique_ptr.54", ptr %5, i32 0, i32 0
  %7 = load ptr, ptr %4, align 8
  invoke void @_ZNSt15__uniq_ptr_dataISt10unique_ptrINSt7__cxx114listIN3gmx24SelectionParserParameterESaIS4_EEESt14default_deleteIS6_EES7_IS9_ELb1ELb1EECI2St15__uniq_ptr_implIS9_SA_EEPS9_(ptr noundef nonnull align 8 dereferenceable(8) %6, ptr noundef %7)
          to label %8 unwind label %9

8:                                                ; preds = %2
  ret void

9:                                                ; preds = %2
  %10 = landingpad { ptr, i32 }
          catch ptr null
  %11 = extractvalue { ptr, i32 } %10, 0
  call void @__clang_call_terminate(ptr %11) #17
  unreachable
}

; Function Attrs: mustprogress uwtable
define internal void @_ZZL3getISt10unique_ptrINSt7__cxx114listIN3gmx24SelectionParserParameterESaIS4_EEESt14default_deleteIS6_EEET_PSA_ENKUlvE_clEv(ptr noundef nonnull align 1 dereferenceable(1) %0) #3 align 2 {
  %2 = alloca ptr, align 8
  store ptr %0, ptr %2, align 8
  call void @_ZN3gmx8internal13assertHandlerEPKcS2_S2_S2_i(ptr noundef @.str.103, ptr noundef @.str.104, ptr noundef @__PRETTY_FUNCTION__._ZZL3getISt10unique_ptrINSt7__cxx114listIN3gmx24SelectionParserParameterESaIS4_EEESt14default_deleteIS6_EEET_PSA_ENKUlvE_clEv, ptr noundef @.str.105, i32 noundef 169) #18
  unreachable
}

; Function Attrs: mustprogress uwtable
define internal void @_ZL3getISt10unique_ptrINSt7__cxx114listIN3gmx24SelectionParserParameterESaIS4_EEESt14default_deleteIS6_EEET_PSA_(ptr dead_on_unwind noalias writable sret(%"class.std::unique_ptr.2") align 8 %0, ptr noundef %1) #3 {
  %3 = alloca ptr, align 8
  %4 = alloca ptr, align 8
  %5 = alloca %class.anon.52, align 1
  %6 = alloca %"class.std::unique_ptr.54", align 8
  store ptr %0, ptr %3, align 8
  store ptr %1, ptr %4, align 8
  %7 = load ptr, ptr %4, align 8
  %8 = icmp ne ptr %7, null
  br i1 %8, label %9, label %10

9:                                                ; preds = %2
  br label %11

10:                                               ; preds = %2
  call void @_ZZL3getISt10unique_ptrINSt7__cxx114listIN3gmx24SelectionParserParameterESaIS4_EEESt14default_deleteIS6_EEET_PSA_ENKUlvE_clEv(ptr noundef nonnull align 1 dereferenceable(1) %5)
  br label %11

11:                                               ; preds = %10, %9
  %12 = load ptr, ptr %4, align 8
  call void @_ZNSt10unique_ptrIS_INSt7__cxx114listIN3gmx24SelectionParserParameterESaIS3_EEESt14default_deleteIS5_EES6_IS8_EEC2IS9_vEEPS8_(ptr noundef nonnull align 8 dereferenceable(8) %6, ptr noundef %12) #14
  %13 = load ptr, ptr %4, align 8
  call void @_ZNSt10unique_ptrINSt7__cxx114listIN3gmx24SelectionParserParameterESaIS3_EEESt14default_deleteIS5_EEC2EOS8_(ptr noundef nonnull align 8 dereferenceable(8) %0, ptr noundef nonnull align 8 dereferenceable(8) %13) #14
  call void @_ZNSt10unique_ptrIS_INSt7__cxx114listIN3gmx24SelectionParserParameterESaIS3_EEESt14default_deleteIS5_EES6_IS8_EED2Ev(ptr noundef nonnull align 8 dereferenceable(8) %6) #14
  ret void
}