; Function Attrs: mustprogress uwtable
define internal fastcc void @_ZL3getISt10unique_ptrINSt7__cxx114listIN3gmx24SelectionParserParameterESaIS4_EEESt14default_deleteIS6_EEET_PSA_(ptr dead_on_unwind noalias nocapture writable writeonly align 8 %0, ptr noundef %1) unnamed_addr #4 personality ptr @__gxx_personality_v0 {
  %3 = alloca %"class.std::unique_ptr.54", align 8
  %.not = icmp eq ptr %1, null
  br i1 %.not, label %.split, label %.split3

.split3:                                          ; preds = %2
  store ptr %1, ptr %3, align 8
  %4 = load i64, ptr %1, align 8
  store i64 %4, ptr %0, align 8
  store ptr null, ptr %1, align 8
  call void @_ZNSt10unique_ptrIS_INSt7__cxx114listIN3gmx24SelectionParserParameterESaIS3_EEESt14default_deleteIS5_EES6_IS8_EED2Ev(ptr noundef nonnull align 8 dereferenceable(8) %3) #21
  ret void

.split:                                           ; preds = %2
  tail call void @_ZN3gmx8internal13assertHandlerEPKcS2_S2_S2_i(ptr noundef nonnull @.str.103, ptr noundef nonnull @.str.104, ptr noundef nonnull @__PRETTY_FUNCTION__._ZZL3getISt10unique_ptrINSt7__cxx114listIN3gmx24SelectionParserParameterESaIS4_EEESt14default_deleteIS6_EEET_PSA_ENKUlvE_clEv, ptr noundef nonnull @.str.105, i32 noundef 169) #27
  unreachable
}